; Function Attrs: mustprogress uwtable
define noundef double @_ZNK8QuantLib16CEVRNDCalculator10massAtZeroEd(ptr nocapture noundef nonnull readonly align 8 dereferenceable(48) %this, double noundef %t) local_unnamed_addr #0 align 2 {
entry:
  %ref.tmp.i.i = alloca %"struct.boost::math::policies::policy", align 1
  %delta_ = getelementptr inbounds nuw i8, ptr %this, i64 32
  %0 = load double, ptr %delta_, align 8, !tbaa !13
  %cmp = fcmp olt double %0, 2.000000e+00
  br i1 %cmp, label %if.then, label %return

if.then:                                          ; preds = %entry
  %1 = tail call double @llvm.fmuladd.f64(double %0, double -5.000000e-01, double 1.000000e+00)
  %x0_ = getelementptr inbounds nuw i8, ptr %this, i64 40
  %2 = load double, ptr %x0_, align 8, !tbaa !16
  %mul = fmul double %t, 2.000000e+00
  %div = fdiv double %2, %mul
  %conv.i.i = fpext double %1 to x86_fp80
  %conv1.i.i = fpext double %div to x86_fp80
  call void @llvm.lifetime.start.p0(i64 1, ptr nonnull %ref.tmp.i.i) #34
  %call.i.i = call noundef x86_fp80 @_ZN5boost4math6detail20gamma_incomplete_impIeNS0_8policies6policyINS3_13promote_floatILb0EEENS3_14promote_doubleILb0EEENS3_14default_policyES9_S9_S9_S9_S9_S9_S9_S9_S9_S9_EEEET_SB_SB_bbRKT0_PSB_(x86_fp80 noundef %conv.i.i, x86_fp80 noundef %conv1.i.i, i1 noundef zeroext true, i1 noundef zeroext false, ptr noundef nonnull align 1 dereferenceable(1) %ref.tmp.i.i, ptr noundef null)
  %3 = call noundef x86_fp80 @llvm.fabs.f80(x86_fp80 %call.i.i)
  %cmp.i.i.i = fcmp ogt x86_fp80 %3, 0xK43FEFFFFFFFFFFFFF800
  br i1 %cmp.i.i.i, label %if.then.i.i.i, label %_ZN5boost4math7gamma_pIddEENS0_5tools12promote_argsIT_T0_ffffE4typeES4_S5_.exit

if.then.i.i.i:                                    ; preds = %if.then
  call void @_ZN5boost4math8policies6detail11raise_errorISt14overflow_errordEEvPKcS6_(ptr noundef nonnull @.str.12, ptr noundef nonnull @.str.13)
  br label %_ZN5boost4math7gamma_pIddEENS0_5tools12promote_argsIT_T0_ffffE4typeES4_S5_.exit

_ZN5boost4math7gamma_pIddEENS0_5tools12promote_argsIT_T0_ffffE4typeES4_S5_.exit: ; preds = %if.then, %if.then.i.i.i
  %retval.0.i.i.i = fptrunc x86_fp80 %call.i.i to double
  call void @llvm.lifetime.end.p0(i64 1, ptr nonnull %ref.tmp.i.i) #34
  %sub = fsub double 1.000000e+00, %retval.0.i.i.i
  br label %return

return:                                           ; preds = %entry, %_ZN5boost4math7gamma_pIddEENS0_5tools12promote_argsIT_T0_ffffE4typeES4_S5_.exit
  %retval.0 = phi double [ %sub, %_ZN5boost4math7gamma_pIddEENS0_5tools12promote_argsIT_T0_ffffE4typeES4_S5_.exit ], [ 0.000000e+00, %entry ]
  ret double %retval.0
}